; Function Attrs: nofree norecurse nosync nounwind sspstrong memory(argmem: readwrite) uwtable
define dso_local void @qcrypto_block_luks_from_disk_endian(ptr noundef captures(none) %hdr) local_unnamed_addr #0 {
entry:
  %version = getelementptr inbounds nuw i8, ptr %hdr, i64 6
  %0 = load i16, ptr %version, align 2
  %1 = tail call i16 @llvm.bswap.i16(i16 %0)
  store i16 %1, ptr %version, align 2
  %payload_offset_sector = getelementptr inbounds nuw i8, ptr %hdr, i64 104
  %2 = load i32, ptr %payload_offset_sector, align 4
  %3 = tail call i32 @llvm.bswap.i32(i32 %2)
  store i32 %3, ptr %payload_offset_sector, align 4
  %master_key_len = getelementptr inbounds nuw i8, ptr %hdr, i64 108
  %4 = load i32, ptr %master_key_len, align 4
  %5 = tail call i32 @llvm.bswap.i32(i32 %4)
  store i32 %5, ptr %master_key_len, align 4
  %master_key_iterations = getelementptr inbounds nuw i8, ptr %hdr, i64 164
  %6 = load i32, ptr %master_key_iterations, align 4
  %7 = tail call i32 @llvm.bswap.i32(i32 %6)
  store i32 %7, ptr %master_key_iterations, align 4
  %key_slots = getelementptr inbounds nuw i8, ptr %hdr, i64 208
  br label %for.body

for.body:                                         ; preds = %entry, %for.body
  %i.013 = phi i64 [ 0, %entry ], [ %inc, %for.body ]
  %arrayidx = getelementptr [8 x %struct.QCryptoBlockLUKSKeySlot], ptr %key_slots, i64 0, i64 %i.013
  %8 = load i32, ptr %arrayidx, align 4
  %9 = tail call i32 @llvm.bswap.i32(i32 %8)
  store i32 %9, ptr %arrayidx, align 4
  %iterations = getelementptr inbounds nuw i8, ptr %arrayidx, i64 4
  %10 = load i32, ptr %iterations, align 4
  %11 = tail call i32 @llvm.bswap.i32(i32 %10)
  store i32 %11, ptr %iterations, align 4
  %key_offset_sector = getelementptr inbounds nuw i8, ptr %arrayidx, i64 40
  %12 = load i32, ptr %key_offset_sector, align 4
  %13 = tail call i32 @llvm.bswap.i32(i32 %12)
  store i32 %13, ptr %key_offset_sector, align 4
  %stripes = getelementptr inbounds nuw i8, ptr %arrayidx, i64 44
  %14 = load i32, ptr %stripes, align 4
  %15 = tail call i32 @llvm.bswap.i32(i32 %14)
  store i32 %15, ptr %stripes, align 4
  %inc = add nuw nsw i64 %i.013, 1
  %exitcond.not = icmp eq i64 %inc, 8
  br i1 %exitcond.not, label %for.end, label %for.body, !llvm.loop !7

for.end:                                          ; preds = %for.body
  ret void
}